target datalayout = "e-m:e-p270:32:32-p271:32:32-p272:64:64-i64:64-i128:128-f80:128-n8:16:32:64-S128"
target triple = "x86_64-pc-linux-gnu"

%class.CodeSection = type { ptr, ptr, ptr, ptr, ptr, ptr, ptr, ptr, i8, i8, i32, i8, ptr }
%class.relocInfo = type { i16 }

; Function Attrs: mustprogress nounwind uwtable
define linkonce_odr hidden noundef i32 @_Z4MAX2IiET_S0_S0_(i32 noundef %0, i32 noundef %1) #1 comdat {
  %3 = alloca i32, align 4
  %4 = alloca i32, align 4
  store i32 %0, ptr %3, align 4
  store i32 %1, ptr %4, align 4
  %5 = load i32, ptr %3, align 4
  %6 = load i32, ptr %4, align 4
  %7 = icmp sgt i32 %5, %6
  br i1 %7, label %8, label %10

8:                                                ; preds = %2
  %9 = load i32, ptr %3, align 4
  br label %12

10:                                               ; preds = %2
  %11 = load i32, ptr %4, align 4
  br label %12

12:                                               ; preds = %10, %8
  %13 = phi i32 [ %9, %8 ], [ %11, %10 ]
  ret i32 %13
}

; Function Attrs: mustprogress nounwind uwtable
define linkonce_odr hidden noundef i32 @_ZNK11CodeSection4sizeEv(ptr noundef nonnull align 8 dereferenceable(88) %0) #1 comdat align 2 {
  %2 = alloca ptr, align 8
  store ptr %0, ptr %2, align 8
  %3 = load ptr, ptr %2, align 8
  %4 = getelementptr inbounds %class.CodeSection, ptr %3, i32 0, i32 2
  %5 = load ptr, ptr %4, align 8
  %6 = getelementptr inbounds %class.CodeSection, ptr %3, i32 0, i32 0
  %7 = load ptr, ptr %6, align 8
  %8 = ptrtoint ptr %5 to i64
  %9 = ptrtoint ptr %7 to i64
  %10 = sub i64 %8, %9
  %11 = trunc i64 %10 to i32
  ret i32 %11
}

; Function Attrs: mustprogress nounwind uwtable
define hidden void @_ZN11CodeSection15initialize_locsEi(ptr noundef nonnull align 8 dereferenceable(88) %0, i32 noundef %1) #1 align 2 {
  %3 = alloca ptr, align 8
  %4 = alloca i32, align 4
  %5 = alloca i32, align 4
  %6 = alloca ptr, align 8
  store ptr %0, ptr %3, align 8
  store i32 %1, ptr %4, align 4
  %7 = load ptr, ptr %3, align 8
  %8 = call noundef i32 @_ZNK11CodeSection4sizeEv(ptr noundef nonnull align 8 dereferenceable(88) %7)
  %9 = sdiv i32 %8, 16
  %10 = call noundef i32 @_Z4MAX2IiET_S0_S0_(i32 noundef %9, i32 noundef 4)
  store i32 %10, ptr %5, align 4
  %11 = load i32, ptr %4, align 4
  %12 = load i32, ptr %5, align 4
  %13 = icmp slt i32 %11, %12
  br i1 %13, label %14, label %16

14:                                               ; preds = %2
  %15 = load i32, ptr %5, align 4
  store i32 %15, ptr %4, align 4
  br label %16

16:                                               ; preds = %14, %2
  %17 = load i32, ptr %4, align 4
  %18 = sext i32 %17 to i64
  %19 = mul i64 %18, 2
  %20 = call noundef ptr @_Z23resource_allocate_bytesmN17AllocFailStrategy13AllocFailEnumE(i64 noundef %19, i32 noundef 0)
  store ptr %20, ptr %6, align 8
  %21 = load ptr, ptr %6, align 8
  %22 = getelementptr inbounds %class.CodeSection, ptr %7, i32 0, i32 4
  store ptr %21, ptr %22, align 8
  %23 = load ptr, ptr %6, align 8
  %24 = getelementptr inbounds %class.CodeSection, ptr %7, i32 0, i32 5
  store ptr %23, ptr %24, align 8
  %25 = load ptr, ptr %6, align 8
  %26 = load i32, ptr %4, align 4
  %27 = sext i32 %26 to i64
  %28 = getelementptr inbounds %class.relocInfo, ptr %25, i64 %27
  %29 = getelementptr inbounds %class.CodeSection, ptr %7, i32 0, i32 6
  store ptr %28, ptr %29, align 8
  %30 = getelementptr inbounds %class.CodeSection, ptr %7, i32 0, i32 8
  store i8 1, ptr %30, align 8
  ret void
}