; Function Attrs: mustprogress nounwind uwtable
define hidden void @_ZN11CodeSection15initialize_locsEi(ptr nocapture noundef nonnull align 8 dereferenceable(88) %0, i32 noundef %1) local_unnamed_addr #0 align 2 {
  %3 = getelementptr inbounds i8, ptr %0, i64 16
  %4 = load ptr, ptr %3, align 8
  %5 = load ptr, ptr %0, align 8
  %6 = ptrtoint ptr %4 to i64
  %7 = ptrtoint ptr %5 to i64
  %8 = sub i64 %6, %7
  %9 = trunc i64 %8 to i32
  %10 = sdiv i32 %9, 16
  %11 = tail call i32 @llvm.smax.i32(i32 %10, i32 %1)
  %spec.select = tail call i32 @llvm.smax.i32(i32 %11, i32 4)
  %12 = zext nneg i32 %spec.select to i64
  %13 = shl nuw nsw i64 %12, 1
  %14 = tail call noundef ptr @_Z23resource_allocate_bytesmN17AllocFailStrategy13AllocFailEnumE(i64 noundef %13, i32 noundef 0) #16
  %15 = getelementptr inbounds i8, ptr %0, i64 32
  store ptr %14, ptr %15, align 8
  %16 = getelementptr inbounds i8, ptr %0, i64 40
  store ptr %14, ptr %16, align 8
  %17 = getelementptr inbounds %class.relocInfo, ptr %14, i64 %12
  %18 = getelementptr inbounds i8, ptr %0, i64 48
  store ptr %17, ptr %18, align 8
  %19 = getelementptr inbounds i8, ptr %0, i64 64
  store i8 1, ptr %19, align 8
  ret void
}